target datalayout = "e-m:e-p270:32:32-p271:32:32-p272:64:64-i64:64-i128:128-f80:128-n8:16:32:64-S128"
target triple = "x86_64-pc-linux-gnu"

%"class.llvm::Value" = type { i8, i8, i16, i32, ptr, ptr }
%"class.llvm::FastMathFlags" = type { i32 }

; Function Attrs: mustprogress nounwind uwtable
define linkonce_odr hidden noundef ptr @_ZN4llvm16cast_convert_valINS_14FPMathOperatorEPKNS_11InstructionES4_E4doitES4_(ptr noundef %0) #0 comdat align 2 {
  %2 = alloca ptr, align 8
  store ptr %0, ptr %2, align 8
  %3 = load ptr, ptr %2, align 8
  ret ptr %3
}

; Function Attrs: mustprogress nounwind uwtable
define linkonce_odr hidden void @_ZN4llvm13FastMathFlagsC2Ej(ptr noundef nonnull align 4 dereferenceable(4) %0, i32 noundef %1) unnamed_addr #0 comdat align 2 {
  %3 = alloca ptr, align 8
  %4 = alloca i32, align 4
  store ptr %0, ptr %3, align 8
  store i32 %1, ptr %4, align 4
  %5 = load ptr, ptr %3, align 8
  %6 = getelementptr inbounds nuw %"class.llvm::FastMathFlags", ptr %5, i32 0, i32 0
  store i32 0, ptr %6, align 4
  %7 = load i32, ptr %4, align 4
  %8 = icmp eq i32 %7, 127
  br i1 %8, label %9, label %11

9:                                                ; preds = %2
  %10 = getelementptr inbounds nuw %"class.llvm::FastMathFlags", ptr %5, i32 0, i32 0
  store i32 -1, ptr %10, align 4
  br label %14

11:                                               ; preds = %2
  %12 = load i32, ptr %4, align 4
  %13 = getelementptr inbounds nuw %"class.llvm::FastMathFlags", ptr %5, i32 0, i32 0
  store i32 %12, ptr %13, align 4
  br label %14

14:                                               ; preds = %11, %9
  ret void
}

; Function Attrs: mustprogress nounwind uwtable
define linkonce_odr hidden noundef ptr @_ZN4llvm8CastInfoINS_14FPMathOperatorEPKNS_11InstructionEvE6doCastERKS4_(ptr noundef nonnull align 8 dereferenceable(8) %0) #0 comdat align 2 {
  %2 = alloca ptr, align 8
  store ptr %0, ptr %2, align 8
  %3 = load ptr, ptr %2, align 8
  %4 = load ptr, ptr %3, align 8
  %5 = call noundef ptr @_ZN4llvm16cast_convert_valINS_14FPMathOperatorEPKNS_11InstructionES4_E4doitES4_(ptr noundef %4)
  ret ptr %5
}

; Function Attrs: mustprogress nounwind uwtable
define linkonce_odr hidden i32 @_ZNK4llvm14FPMathOperator16getFastMathFlagsEv(ptr noundef nonnull align 8 dereferenceable(24) %0) #0 comdat align 2 {
  %2 = alloca %"class.llvm::FastMathFlags", align 4
  %3 = alloca ptr, align 8
  store ptr %0, ptr %3, align 8
  %4 = load ptr, ptr %3, align 8
  %5 = getelementptr inbounds nuw %"class.llvm::Value", ptr %4, i32 0, i32 1
  %6 = load i8, ptr %5, align 1
  %7 = lshr i8 %6, 1
  %8 = zext i8 %7 to i32
  call void @_ZN4llvm13FastMathFlagsC2Ej(ptr noundef nonnull align 4 dereferenceable(4) %2, i32 noundef %8)
  %9 = getelementptr inbounds nuw %"class.llvm::FastMathFlags", ptr %2, i32 0, i32 0
  %10 = load i32, ptr %9, align 4
  ret i32 %10
}

; Function Attrs: mustprogress nounwind uwtable
define linkonce_odr hidden noundef ptr @_ZN4llvm4castINS_14FPMathOperatorEKNS_11InstructionEEEDcPT0_(ptr noundef %0) #0 comdat {
  %2 = alloca ptr, align 8
  store ptr %0, ptr %2, align 8
  %3 = call noundef ptr @_ZN4llvm8CastInfoINS_14FPMathOperatorEPKNS_11InstructionEvE6doCastERKS4_(ptr noundef nonnull align 8 dereferenceable(8) %2)
  ret ptr %3
}

; Function Attrs: mustprogress nounwind willreturn memory(read) uwtable
define dso_local i32 @_ZNK4llvm11Instruction16getFastMathFlagsEv(ptr noundef nonnull align 8 dereferenceable(72) %0) #4 align 2 {
  %2 = alloca %"class.llvm::FastMathFlags", align 4
  %3 = alloca ptr, align 8
  store ptr %0, ptr %3, align 8
  %4 = load ptr, ptr %3, align 8
  %5 = call noundef ptr @_ZN4llvm4castINS_14FPMathOperatorEKNS_11InstructionEEEDcPT0_(ptr noundef %4)
  %6 = call i32 @_ZNK4llvm14FPMathOperator16getFastMathFlagsEv(ptr noundef nonnull align 8 dereferenceable(24) %5)
  %7 = getelementptr inbounds nuw %"class.llvm::FastMathFlags", ptr %2, i32 0, i32 0
  store i32 %6, ptr %7, align 4
  %8 = getelementptr inbounds nuw %"class.llvm::FastMathFlags", ptr %2, i32 0, i32 0
  %9 = load i32, ptr %8, align 4
  ret i32 %9
}