; Function Attrs: mustprogress nofree norecurse nosync nounwind willreturn memory(argmem: read) uwtable
define dso_local range(i32 -1, 128) i32 @_ZNK4llvm11Instruction16getFastMathFlagsEv(ptr nocapture noundef nonnull readonly align 8 dereferenceable(72) %0) local_unnamed_addr #7 align 2 {
  %2 = getelementptr inbounds nuw i8, ptr %0, i64 1
  %3 = load i8, ptr %2, align 1
  %4 = lshr i8 %3, 1
  %5 = zext nneg i8 %4 to i32
  %6 = icmp eq i8 %4, 127
  %..i.i = select i1 %6, i32 -1, i32 %5
  ret i32 %..i.i
}